target datalayout = "e-m:e-p270:32:32-p271:32:32-p272:64:64-i64:64-i128:128-f80:128-n8:16:32:64-S128"
target triple = "x86_64-pc-linux-gnu"

%struct.color_t = type { i16, i16, i16 }
%struct._color_filter = type { ptr, ptr, %struct.color_t, %struct.color_t, i8, ptr }
%struct.df_error_t = type { i32, ptr, %struct._dfilter_loc }
%struct._dfilter_loc = type { i64, i64 }

@__func__.color_filter_validate_cb = private unnamed_addr constant [25 x i8] c"color_filter_validate_cb\00", align 1
@.str.15 = private unnamed_addr constant [51 x i8] c"Disabling color filter name: \22%s\22 filter: \22%s\22.\0A%s\00", align 1

; Function Attrs: null_pointer_is_valid sspstrong uwtable
define internal void @color_filter_validate_cb(ptr noundef %0, ptr noundef %1) #0 {
  %3 = alloca ptr, align 8
  %4 = alloca ptr, align 8
  %5 = alloca ptr, align 8
  %6 = alloca ptr, align 8
  %7 = alloca ptr, align 8
  %8 = alloca i32, align 4
  store ptr %0, ptr %3, align 8
  store ptr %1, ptr %4, align 8
  call void @llvm.lifetime.start.p0(i64 8, ptr %5) #13
  %9 = load ptr, ptr %3, align 8
  store ptr %9, ptr %5, align 8
  call void @llvm.lifetime.start.p0(i64 8, ptr %6) #13
  %10 = load ptr, ptr %4, align 8
  store ptr %10, ptr %6, align 8
  call void @llvm.lifetime.start.p0(i64 8, ptr %7) #13
  store ptr null, ptr %7, align 8
  br label %11

11:                                               ; preds = %2
  br label %12

12:                                               ; preds = %11
  br label %13

13:                                               ; preds = %12
  %14 = load ptr, ptr %5, align 8
  %15 = getelementptr inbounds nuw %struct._color_filter, ptr %14, i32 0, i32 4
  %16 = load i8, ptr %15, align 4, !range !6, !noundef !7
  %17 = trunc i8 %16 to i1
  br i1 %17, label %18, label %19

18:                                               ; preds = %13
  store i32 1, ptr %8, align 4
  br label %41

19:                                               ; preds = %13
  %20 = load ptr, ptr %5, align 8
  %21 = getelementptr inbounds nuw %struct._color_filter, ptr %20, i32 0, i32 1
  %22 = load ptr, ptr %21, align 8
  %23 = load ptr, ptr %5, align 8
  %24 = getelementptr inbounds nuw %struct._color_filter, ptr %23, i32 0, i32 5
  %25 = call zeroext i1 @dfilter_compile_full(ptr noundef %22, ptr noundef %24, ptr noundef %7, i32 noundef 6, ptr noundef @__func__.color_filter_validate_cb)
  br i1 %25, label %40, label %26

26:                                               ; preds = %19
  %27 = load ptr, ptr %5, align 8
  %28 = getelementptr inbounds nuw %struct._color_filter, ptr %27, i32 0, i32 0
  %29 = load ptr, ptr %28, align 8
  %30 = load ptr, ptr %5, align 8
  %31 = getelementptr inbounds nuw %struct._color_filter, ptr %30, i32 0, i32 1
  %32 = load ptr, ptr %31, align 8
  %33 = load ptr, ptr %7, align 8
  %34 = getelementptr inbounds nuw %struct.df_error_t, ptr %33, i32 0, i32 1
  %35 = load ptr, ptr %34, align 8
  %36 = call noalias ptr (ptr, ptr, ...) @wmem_strdup_printf(ptr noundef null, ptr noundef @.str.15, ptr noundef %29, ptr noundef %32, ptr noundef %35)
  %37 = load ptr, ptr %6, align 8
  store ptr %36, ptr %37, align 8
  call void @df_error_free(ptr noundef %7)
  %38 = load ptr, ptr %5, align 8
  %39 = getelementptr inbounds nuw %struct._color_filter, ptr %38, i32 0, i32 4
  store i8 1, ptr %39, align 4
  br label %40

40:                                               ; preds = %26, %19
  store i32 0, ptr %8, align 4
  br label %41

41:                                               ; preds = %40, %18
  call void @llvm.lifetime.end.p0(i64 8, ptr %7) #13
  call void @llvm.lifetime.end.p0(i64 8, ptr %6) #13
  call void @llvm.lifetime.end.p0(i64 8, ptr %5) #13
  %42 = load i32, ptr %8, align 4
  switch i32 %42, label %44 [
    i32 0, label %43
    i32 1, label %43
  ]

43:                                               ; preds = %41, %41
  ret void

44:                                               ; preds = %41
  unreachable
}