; Function Attrs: null_pointer_is_valid sspstrong uwtable
define internal void @color_filter_validate_cb(ptr noundef %0, ptr noundef writeonly captures(none) %1) #0 {
  %3 = alloca ptr, align 8
  call void @llvm.lifetime.start.p0(i64 8, ptr nonnull %3) #14
  store ptr null, ptr %3, align 8
  %4 = getelementptr inbounds nuw i8, ptr %0, i64 28
  %5 = load i8, ptr %4, align 4, !range !6, !noundef !7
  %6 = trunc nuw i8 %5 to i1
  br i1 %6, label %19, label %7

7:                                                ; preds = %2
  %8 = getelementptr inbounds nuw i8, ptr %0, i64 8
  %9 = load ptr, ptr %8, align 8
  %10 = getelementptr inbounds nuw i8, ptr %0, i64 32
  %11 = call zeroext i1 @dfilter_compile_full(ptr noundef %9, ptr noundef nonnull %10, ptr noundef nonnull %3, i32 noundef 6, ptr noundef nonnull @__func__.color_filter_validate_cb)
  br i1 %11, label %19, label %12

12:                                               ; preds = %7
  %13 = load ptr, ptr %0, align 8
  %14 = load ptr, ptr %8, align 8
  %15 = load ptr, ptr %3, align 8
  %16 = getelementptr inbounds nuw i8, ptr %15, i64 8
  %17 = load ptr, ptr %16, align 8
  %18 = call noalias ptr (ptr, ptr, ...) @wmem_strdup_printf(ptr noundef null, ptr noundef nonnull @.str.15, ptr noundef %13, ptr noundef %14, ptr noundef %17)
  store ptr %18, ptr %1, align 8
  call void @df_error_free(ptr noundef nonnull %3)
  store i8 1, ptr %4, align 4
  br label %19

19:                                               ; preds = %7, %12, %2
  call void @llvm.lifetime.end.p0(i64 8, ptr nonnull %3) #14
  ret void
}